target datalayout = "e-m:e-p270:32:32-p271:32:32-p272:64:64-i64:64-i128:128-f80:128-n8:16:32:64-S128"
target triple = "x86_64-pc-linux-gnu"

%struct._priv_exr_context_t = type { i8, i8, i8, i8, i8, i8, i8, i8, %struct.exr_attr_string_t, %struct.exr_attr_string_t, ptr, ptr, ptr, ptr, ptr, ptr, ptr, ptr, i32, i32, i32, i32, i32, float, ptr, ptr, ptr, i64, ptr, ptr, i64, i32, i32, i32, i32, %struct._priv_exr_part_t, ptr, ptr, %struct.exr_attribute_list, %union.pthread_mutex_t, i8, i8, [2 x i8], i32 }
%struct.exr_attr_string_t = type { i32, i32, ptr }
%struct._priv_exr_part_t = type { i32, i32, %struct.exr_attribute_list, ptr, ptr, ptr, ptr, ptr, ptr, ptr, ptr, ptr, ptr, ptr, ptr, ptr, ptr, %struct.exr_attr_box2i_t, %struct.exr_attr_box2i_t, i32, i32, i32, float, i32, i32, ptr, ptr, ptr, ptr, i64, i16, i16, i32, i64, i64 }
%struct.exr_attr_box2i_t = type { %struct.exr_attr_v2i_t, %struct.exr_attr_v2i_t }
%struct.exr_attr_v2i_t = type { i32, i32 }
%struct.exr_attribute_list = type { i32, i32, ptr, ptr }
%union.pthread_mutex_t = type { %struct.__pthread_mutex_s }
%struct.__pthread_mutex_s = type { i32, i32, i32, i32, i32, i16, i16, %struct.__pthread_internal_list }
%struct.__pthread_internal_list = type { ptr, ptr }
%struct.exr_attribute_t = type { ptr, ptr, i8, i8, [2 x i8], i32, %union.anon }
%union.anon = type { double }
%struct.exr_attr_opaquedata_t = type { i32, i32, i32, [4 x i8], ptr, ptr, ptr, ptr, ptr }

@.str = private unnamed_addr constant [29 x i8] c"Part index (%d) out of range\00", align 1
@.str.127 = private unnamed_addr constant [40 x i8] c"Invalid name for opaque attribute query\00", align 1
@.str.128 = private unnamed_addr constant [65 x i8] c"'%s' requested type 'opaque', but stored attributes is type '%s'\00", align 1

; Function Attrs: inlinehint nounwind uwtable
define internal void @internal_exr_unlock(ptr noundef %0) #2 {
  %2 = alloca ptr, align 8
  %3 = alloca ptr, align 8
  store ptr %0, ptr %2, align 8, !tbaa !3
  call void @llvm.lifetime.start.p0(i64 8, ptr %3) #8
  %4 = load ptr, ptr %2, align 8, !tbaa !3
  %5 = ptrtoint ptr %4 to i64
  %6 = inttoptr i64 %5 to ptr
  store ptr %6, ptr %3, align 8, !tbaa !3
  %7 = load ptr, ptr %3, align 8, !tbaa !3
  %8 = getelementptr inbounds nuw %struct._priv_exr_context_t, ptr %7, i32 0, i32 39
  %9 = call i32 @pthread_mutex_unlock(ptr noundef %8) #8
  call void @llvm.lifetime.end.p0(i64 8, ptr %3) #8
  ret void
}

; Function Attrs: inlinehint nounwind uwtable
define internal void @internal_exr_lock(ptr noundef %0) #2 {
  %2 = alloca ptr, align 8
  %3 = alloca ptr, align 8
  store ptr %0, ptr %2, align 8, !tbaa !3
  call void @llvm.lifetime.start.p0(i64 8, ptr %3) #8
  %4 = load ptr, ptr %2, align 8, !tbaa !3
  %5 = ptrtoint ptr %4 to i64
  %6 = inttoptr i64 %5 to ptr
  store ptr %6, ptr %3, align 8, !tbaa !3
  %7 = load ptr, ptr %3, align 8, !tbaa !3
  %8 = getelementptr inbounds nuw %struct._priv_exr_context_t, ptr %7, i32 0, i32 39
  %9 = call i32 @pthread_mutex_lock(ptr noundef %8) #8
  call void @llvm.lifetime.end.p0(i64 8, ptr %3) #8
  ret void
}

; Function Attrs: nounwind uwtable
define i32 @exr_attr_get_user(ptr noundef %0, i32 noundef %1, ptr noundef %2, ptr noundef %3, ptr noundef %4, ptr noundef %5) #0 {
  %7 = alloca i32, align 4
  %8 = alloca ptr, align 8
  %9 = alloca i32, align 4
  %10 = alloca ptr, align 8
  %11 = alloca ptr, align 8
  %12 = alloca ptr, align 8
  %13 = alloca ptr, align 8
  %14 = alloca ptr, align 8
  %15 = alloca i32, align 4
  %16 = alloca ptr, align 8
  %17 = alloca i32, align 4
  store ptr %0, ptr %8, align 8, !tbaa !3
  store i32 %1, ptr %9, align 4, !tbaa !8
  store ptr %2, ptr %10, align 8, !tbaa !36
  store ptr %3, ptr %11, align 8, !tbaa !101
  store ptr %4, ptr %12, align 8, !tbaa !10
  store ptr %5, ptr %13, align 8, !tbaa !32
  call void @llvm.lifetime.start.p0(i64 8, ptr %14) #8
  call void @llvm.lifetime.start.p0(i64 4, ptr %15) #8
  call void @llvm.lifetime.start.p0(i64 8, ptr %16) #8
  %18 = load ptr, ptr %8, align 8, !tbaa !3
  %19 = icmp ne ptr %18, null
  br i1 %19, label %21, label %20

20:                                               ; preds = %6
  store i32 2, ptr %7, align 4
  store i32 1, ptr %17, align 4
  br label %201

21:                                               ; preds = %6
  %22 = load ptr, ptr %8, align 8, !tbaa !3
  %23 = getelementptr inbounds nuw %struct._priv_exr_context_t, ptr %22, i32 0, i32 0
  %24 = load i8, ptr %23, align 8, !tbaa !12
  %25 = zext i8 %24 to i32
  %26 = icmp eq i32 %25, 1
  br i1 %26, label %27, label %29

27:                                               ; preds = %21
  %28 = load ptr, ptr %8, align 8, !tbaa !3
  call void @internal_exr_lock(ptr noundef %28)
  br label %29

29:                                               ; preds = %27, %21
  %30 = load i32, ptr %9, align 4, !tbaa !8
  %31 = icmp slt i32 %30, 0
  br i1 %31, label %38, label %32

32:                                               ; preds = %29
  %33 = load i32, ptr %9, align 4, !tbaa !8
  %34 = load ptr, ptr %8, align 8, !tbaa !3
  %35 = getelementptr inbounds nuw %struct._priv_exr_context_t, ptr %34, i32 0, i32 34
  %36 = load i32, ptr %35, align 4, !tbaa !26
  %37 = icmp sge i32 %33, %36
  br i1 %37, label %38, label %53

38:                                               ; preds = %32, %29
  %39 = load ptr, ptr %8, align 8, !tbaa !3
  %40 = getelementptr inbounds nuw %struct._priv_exr_context_t, ptr %39, i32 0, i32 0
  %41 = load i8, ptr %40, align 8, !tbaa !12
  %42 = zext i8 %41 to i32
  %43 = icmp eq i32 %42, 1
  br i1 %43, label %44, label %46

44:                                               ; preds = %38
  %45 = load ptr, ptr %8, align 8, !tbaa !3
  call void @internal_exr_unlock(ptr noundef %45)
  br label %46

46:                                               ; preds = %44, %38
  %47 = load ptr, ptr %8, align 8, !tbaa !3
  %48 = getelementptr inbounds nuw %struct._priv_exr_context_t, ptr %47, i32 0, i32 14
  %49 = load ptr, ptr %48, align 8, !tbaa !27
  %50 = load ptr, ptr %8, align 8, !tbaa !3
  %51 = load i32, ptr %9, align 4, !tbaa !8
  %52 = call i32 (ptr, i32, ptr, ...) %49(ptr noundef %50, i32 noundef 4, ptr noundef @.str, i32 noundef %51)
  store i32 %52, ptr %7, align 4
  store i32 1, ptr %17, align 4
  br label %201

53:                                               ; preds = %32
  %54 = load ptr, ptr %8, align 8, !tbaa !3
  %55 = getelementptr inbounds nuw %struct._priv_exr_context_t, ptr %54, i32 0, i32 37
  %56 = load ptr, ptr %55, align 8, !tbaa !28
  %57 = load i32, ptr %9, align 4, !tbaa !8
  %58 = sext i32 %57 to i64
  %59 = getelementptr inbounds ptr, ptr %56, i64 %58
  %60 = load ptr, ptr %59, align 8, !tbaa !29
  store ptr %60, ptr %16, align 8, !tbaa !29
  %61 = load ptr, ptr %10, align 8, !tbaa !36
  %62 = icmp ne ptr %61, null
  br i1 %62, label %63, label %69

63:                                               ; preds = %53
  %64 = load ptr, ptr %10, align 8, !tbaa !36
  %65 = getelementptr inbounds i8, ptr %64, i64 0
  %66 = load i8, ptr %65, align 1, !tbaa !42
  %67 = sext i8 %66 to i32
  %68 = icmp eq i32 %67, 0
  br i1 %68, label %69, label %84

69:                                               ; preds = %63, %53
  %70 = load ptr, ptr %8, align 8, !tbaa !3
  %71 = getelementptr inbounds nuw %struct._priv_exr_context_t, ptr %70, i32 0, i32 0
  %72 = load i8, ptr %71, align 8, !tbaa !12
  %73 = zext i8 %72 to i32
  %74 = icmp eq i32 %73, 1
  br i1 %74, label %75, label %77

75:                                               ; preds = %69
  %76 = load ptr, ptr %8, align 8, !tbaa !3
  call void @internal_exr_unlock(ptr noundef %76)
  br label %78

77:                                               ; preds = %69
  br label %78

78:                                               ; preds = %77, %75
  %79 = load ptr, ptr %8, align 8, !tbaa !3
  %80 = getelementptr inbounds nuw %struct._priv_exr_context_t, ptr %79, i32 0, i32 13
  %81 = load ptr, ptr %80, align 8, !tbaa !45
  %82 = load ptr, ptr %8, align 8, !tbaa !3
  %83 = call i32 %81(ptr noundef %82, i32 noundef 3, ptr noundef @.str.127)
  store i32 %83, ptr %7, align 4
  store i32 1, ptr %17, align 4
  br label %201

84:                                               ; preds = %63
  %85 = load ptr, ptr %8, align 8, !tbaa !3
  %86 = load ptr, ptr %16, align 8, !tbaa !29
  %87 = getelementptr inbounds nuw %struct._priv_exr_part_t, ptr %86, i32 0, i32 2
  %88 = ptrtoint ptr %87 to i64
  %89 = inttoptr i64 %88 to ptr
  %90 = load ptr, ptr %10, align 8, !tbaa !36
  %91 = call i32 @exr_attr_list_find_by_name(ptr noundef %85, ptr noundef %89, ptr noundef %90, ptr noundef %14)
  store i32 %91, ptr %15, align 4, !tbaa !8
  %92 = load i32, ptr %15, align 4, !tbaa !8
  %93 = icmp ne i32 %92, 0
  br i1 %93, label %94, label %105

94:                                               ; preds = %84
  %95 = load ptr, ptr %8, align 8, !tbaa !3
  %96 = getelementptr inbounds nuw %struct._priv_exr_context_t, ptr %95, i32 0, i32 0
  %97 = load i8, ptr %96, align 8, !tbaa !12
  %98 = zext i8 %97 to i32
  %99 = icmp eq i32 %98, 1
  br i1 %99, label %100, label %102

100:                                              ; preds = %94
  %101 = load ptr, ptr %8, align 8, !tbaa !3
  call void @internal_exr_unlock(ptr noundef %101)
  br label %103

102:                                              ; preds = %94
  br label %103

103:                                              ; preds = %102, %100
  %104 = load i32, ptr %15, align 4, !tbaa !8
  store i32 %104, ptr %7, align 4
  store i32 1, ptr %17, align 4
  br label %201

105:                                              ; preds = %84
  %106 = load ptr, ptr %14, align 8, !tbaa !35
  %107 = getelementptr inbounds nuw %struct.exr_attribute_t, ptr %106, i32 0, i32 5
  %108 = load i32, ptr %107, align 4, !tbaa !39
  %109 = icmp ne i32 %108, 30
  br i1 %109, label %110, label %129

110:                                              ; preds = %105
  %111 = load ptr, ptr %8, align 8, !tbaa !3
  %112 = getelementptr inbounds nuw %struct._priv_exr_context_t, ptr %111, i32 0, i32 0
  %113 = load i8, ptr %112, align 8, !tbaa !12
  %114 = zext i8 %113 to i32
  %115 = icmp eq i32 %114, 1
  br i1 %115, label %116, label %118

116:                                              ; preds = %110
  %117 = load ptr, ptr %8, align 8, !tbaa !3
  call void @internal_exr_unlock(ptr noundef %117)
  br label %119

118:                                              ; preds = %110
  br label %119

119:                                              ; preds = %118, %116
  %120 = load ptr, ptr %8, align 8, !tbaa !3
  %121 = getelementptr inbounds nuw %struct._priv_exr_context_t, ptr %120, i32 0, i32 14
  %122 = load ptr, ptr %121, align 8, !tbaa !27
  %123 = load ptr, ptr %8, align 8, !tbaa !3
  %124 = load ptr, ptr %10, align 8, !tbaa !36
  %125 = load ptr, ptr %14, align 8, !tbaa !35
  %126 = getelementptr inbounds nuw %struct.exr_attribute_t, ptr %125, i32 0, i32 1
  %127 = load ptr, ptr %126, align 8, !tbaa !41
  %128 = call i32 (ptr, i32, ptr, ...) %122(ptr noundef %123, i32 noundef 16, ptr noundef @.str.128, ptr noundef %124, ptr noundef %127)
  store i32 %128, ptr %7, align 4
  store i32 1, ptr %17, align 4
  br label %201

129:                                              ; preds = %105
  %130 = load i32, ptr %15, align 4, !tbaa !8
  %131 = icmp eq i32 %130, 0
  br i1 %131, label %132, label %190

132:                                              ; preds = %129
  %133 = load ptr, ptr %11, align 8, !tbaa !101
  %134 = icmp ne ptr %133, null
  br i1 %134, label %135, label %140

135:                                              ; preds = %132
  %136 = load ptr, ptr %14, align 8, !tbaa !35
  %137 = getelementptr inbounds nuw %struct.exr_attribute_t, ptr %136, i32 0, i32 1
  %138 = load ptr, ptr %137, align 8, !tbaa !41
  %139 = load ptr, ptr %11, align 8, !tbaa !101
  store ptr %138, ptr %139, align 8, !tbaa !36
  br label %140

140:                                              ; preds = %135, %132
  %141 = load ptr, ptr %14, align 8, !tbaa !35
  %142 = getelementptr inbounds nuw %struct.exr_attribute_t, ptr %141, i32 0, i32 6
  %143 = load ptr, ptr %142, align 8, !tbaa !42
  %144 = getelementptr inbounds nuw %struct.exr_attr_opaquedata_t, ptr %143, i32 0, i32 7
  %145 = load ptr, ptr %144, align 8, !tbaa !131
  %146 = icmp ne ptr %145, null
  br i1 %146, label %147, label %168

147:                                              ; preds = %140
  %148 = load ptr, ptr %12, align 8, !tbaa !10
  %149 = icmp ne ptr %148, null
  br i1 %149, label %150, label %157

150:                                              ; preds = %147
  %151 = load ptr, ptr %14, align 8, !tbaa !35
  %152 = getelementptr inbounds nuw %struct.exr_attribute_t, ptr %151, i32 0, i32 6
  %153 = load ptr, ptr %152, align 8, !tbaa !42
  %154 = getelementptr inbounds nuw %struct.exr_attr_opaquedata_t, ptr %153, i32 0, i32 1
  %155 = load i32, ptr %154, align 4, !tbaa !133
  %156 = load ptr, ptr %12, align 8, !tbaa !10
  store i32 %155, ptr %156, align 4, !tbaa !8
  br label %157

157:                                              ; preds = %150, %147
  %158 = load ptr, ptr %13, align 8, !tbaa !32
  %159 = icmp ne ptr %158, null
  br i1 %159, label %160, label %167

160:                                              ; preds = %157
  %161 = load ptr, ptr %14, align 8, !tbaa !35
  %162 = getelementptr inbounds nuw %struct.exr_attribute_t, ptr %161, i32 0, i32 6
  %163 = load ptr, ptr %162, align 8, !tbaa !42
  %164 = getelementptr inbounds nuw %struct.exr_attr_opaquedata_t, ptr %163, i32 0, i32 5
  %165 = load ptr, ptr %164, align 8, !tbaa !134
  %166 = load ptr, ptr %13, align 8, !tbaa !32
  store ptr %165, ptr %166, align 8, !tbaa !35
  br label %167

167:                                              ; preds = %160, %157
  br label %189

168:                                              ; preds = %140
  %169 = load ptr, ptr %12, align 8, !tbaa !10
  %170 = icmp ne ptr %169, null
  br i1 %170, label %171, label %178

171:                                              ; preds = %168
  %172 = load ptr, ptr %14, align 8, !tbaa !35
  %173 = getelementptr inbounds nuw %struct.exr_attribute_t, ptr %172, i32 0, i32 6
  %174 = load ptr, ptr %173, align 8, !tbaa !42
  %175 = getelementptr inbounds nuw %struct.exr_attr_opaquedata_t, ptr %174, i32 0, i32 2
  %176 = load i32, ptr %175, align 8, !tbaa !135
  %177 = load ptr, ptr %12, align 8, !tbaa !10
  store i32 %176, ptr %177, align 4, !tbaa !8
  br label %178

178:                                              ; preds = %171, %168
  %179 = load ptr, ptr %13, align 8, !tbaa !32
  %180 = icmp ne ptr %179, null
  br i1 %180, label %181, label %188

181:                                              ; preds = %178
  %182 = load ptr, ptr %14, align 8, !tbaa !35
  %183 = getelementptr inbounds nuw %struct.exr_attribute_t, ptr %182, i32 0, i32 6
  %184 = load ptr, ptr %183, align 8, !tbaa !42
  %185 = getelementptr inbounds nuw %struct.exr_attr_opaquedata_t, ptr %184, i32 0, i32 4
  %186 = load ptr, ptr %185, align 8, !tbaa !136
  %187 = load ptr, ptr %13, align 8, !tbaa !32
  store ptr %186, ptr %187, align 8, !tbaa !35
  br label %188

188:                                              ; preds = %181, %178
  br label %189

189:                                              ; preds = %188, %167
  br label %190

190:                                              ; preds = %189, %129
  %191 = load ptr, ptr %8, align 8, !tbaa !3
  %192 = getelementptr inbounds nuw %struct._priv_exr_context_t, ptr %191, i32 0, i32 0
  %193 = load i8, ptr %192, align 8, !tbaa !12
  %194 = zext i8 %193 to i32
  %195 = icmp eq i32 %194, 1
  br i1 %195, label %196, label %198

196:                                              ; preds = %190
  %197 = load ptr, ptr %8, align 8, !tbaa !3
  call void @internal_exr_unlock(ptr noundef %197)
  br label %199

198:                                              ; preds = %190
  br label %199

199:                                              ; preds = %198, %196
  %200 = load i32, ptr %15, align 4, !tbaa !8
  store i32 %200, ptr %7, align 4
  store i32 1, ptr %17, align 4
  br label %201

201:                                              ; preds = %199, %119, %103, %78, %46, %20
  call void @llvm.lifetime.end.p0(i64 8, ptr %16) #8
  call void @llvm.lifetime.end.p0(i64 4, ptr %15) #8
  call void @llvm.lifetime.end.p0(i64 8, ptr %14) #8
  %202 = load i32, ptr %7, align 4
  ret i32 %202
}