; Function Attrs: nounwind uwtable
define i32 @exr_attr_get_user(ptr noundef %0, i32 noundef %1, ptr noundef %2, ptr noundef writeonly %3, ptr noundef writeonly %4, ptr noundef writeonly %5) local_unnamed_addr #0 {
  %7 = alloca ptr, align 8
  call void @llvm.lifetime.start.p0(i64 8, ptr nonnull %7) #6
  %.not = icmp eq ptr %0, null
  br i1 %.not, label %102, label %8

8:                                                ; preds = %6
  %9 = load i8, ptr %0, align 8, !tbaa !3
  %10 = icmp eq i8 %9, 1
  br i1 %10, label %11, label %14

11:                                               ; preds = %8
  %12 = getelementptr inbounds nuw i8, ptr %0, i64 504
  %13 = tail call i32 @pthread_mutex_lock(ptr noundef nonnull %12) #6
  br label %14

14:                                               ; preds = %11, %8
  %15 = icmp slt i32 %1, 0
  br i1 %15, label %19, label %16

16:                                               ; preds = %14
  %17 = getelementptr inbounds nuw i8, ptr %0, i64 196
  %18 = load i32, ptr %17, align 4, !tbaa !22
  %.not54 = icmp slt i32 %1, %18
  br i1 %.not54, label %29, label %19

19:                                               ; preds = %16, %14
  %20 = load i8, ptr %0, align 8, !tbaa !3
  %21 = icmp eq i8 %20, 1
  br i1 %21, label %22, label %25

22:                                               ; preds = %19
  %23 = getelementptr inbounds nuw i8, ptr %0, i64 504
  %24 = tail call i32 @pthread_mutex_unlock(ptr noundef nonnull %23) #6
  br label %25

25:                                               ; preds = %22, %19
  %26 = getelementptr inbounds nuw i8, ptr %0, i64 72
  %27 = load ptr, ptr %26, align 8, !tbaa !23
  %28 = tail call i32 (ptr, i32, ptr, ...) %27(ptr noundef nonnull %0, i32 noundef 4, ptr noundef nonnull @.str, i32 noundef %1) #6
  br label %102

29:                                               ; preds = %16
  %30 = getelementptr inbounds nuw i8, ptr %0, i64 472
  %31 = load ptr, ptr %30, align 8, !tbaa !24
  %32 = zext nneg i32 %1 to i64
  %33 = getelementptr inbounds nuw ptr, ptr %31, i64 %32
  %34 = load ptr, ptr %33, align 8, !tbaa !25
  %.not55 = icmp eq ptr %2, null
  br i1 %.not55, label %38, label %35

35:                                               ; preds = %29
  %36 = load i8, ptr %2, align 1, !tbaa !35
  %37 = icmp eq i8 %36, 0
  br i1 %37, label %38, label %48

38:                                               ; preds = %35, %29
  %39 = load i8, ptr %0, align 8, !tbaa !3
  %40 = icmp eq i8 %39, 1
  br i1 %40, label %41, label %44

41:                                               ; preds = %38
  %42 = getelementptr inbounds nuw i8, ptr %0, i64 504
  %43 = tail call i32 @pthread_mutex_unlock(ptr noundef nonnull %42) #6
  br label %44

44:                                               ; preds = %38, %41
  %45 = getelementptr inbounds nuw i8, ptr %0, i64 64
  %46 = load ptr, ptr %45, align 8, !tbaa !38
  %47 = tail call i32 %46(ptr noundef nonnull %0, i32 noundef 3, ptr noundef nonnull @.str.127) #6
  br label %102

48:                                               ; preds = %35
  %49 = getelementptr inbounds nuw i8, ptr %34, i64 8
  %50 = call i32 @exr_attr_list_find_by_name(ptr noundef nonnull %0, ptr noundef nonnull %49, ptr noundef nonnull %2, ptr noundef nonnull %7) #6
  %.not56 = icmp eq i32 %50, 0
  br i1 %.not56, label %57, label %51

51:                                               ; preds = %48
  %52 = load i8, ptr %0, align 8, !tbaa !3
  %53 = icmp eq i8 %52, 1
  br i1 %53, label %54, label %102

54:                                               ; preds = %51
  %55 = getelementptr inbounds nuw i8, ptr %0, i64 504
  %56 = call i32 @pthread_mutex_unlock(ptr noundef nonnull %55) #6
  br label %102

57:                                               ; preds = %48
  %58 = load ptr, ptr %7, align 8, !tbaa !30
  %59 = getelementptr inbounds nuw i8, ptr %58, i64 20
  %60 = load i32, ptr %59, align 4, !tbaa !32
  %.not57 = icmp eq i32 %60, 30
  br i1 %.not57, label %74, label %61

61:                                               ; preds = %57
  %62 = load i8, ptr %0, align 8, !tbaa !3
  %63 = icmp eq i8 %62, 1
  br i1 %63, label %64, label %67

64:                                               ; preds = %61
  %65 = getelementptr inbounds nuw i8, ptr %0, i64 504
  %66 = call i32 @pthread_mutex_unlock(ptr noundef nonnull %65) #6
  %.pre = load ptr, ptr %7, align 8, !tbaa !30
  br label %67

67:                                               ; preds = %61, %64
  %68 = phi ptr [ %58, %61 ], [ %.pre, %64 ]
  %69 = getelementptr inbounds nuw i8, ptr %0, i64 72
  %70 = load ptr, ptr %69, align 8, !tbaa !23
  %71 = getelementptr inbounds nuw i8, ptr %68, i64 8
  %72 = load ptr, ptr %71, align 8, !tbaa !34
  %73 = call i32 (ptr, i32, ptr, ...) %70(ptr noundef nonnull %0, i32 noundef 16, ptr noundef nonnull @.str.128, ptr noundef nonnull %2, ptr noundef %72) #6
  br label %102

74:                                               ; preds = %57
  %.not58 = icmp eq ptr %3, null
  br i1 %.not58, label %78, label %75

75:                                               ; preds = %74
  %76 = getelementptr inbounds nuw i8, ptr %58, i64 8
  %77 = load ptr, ptr %76, align 8, !tbaa !34
  store ptr %77, ptr %3, align 8, !tbaa !90
  br label %78

78:                                               ; preds = %75, %74
  %79 = getelementptr inbounds nuw i8, ptr %58, i64 24
  %80 = load ptr, ptr %79, align 8, !tbaa !35
  %81 = getelementptr inbounds nuw i8, ptr %80, i64 40
  %82 = load ptr, ptr %81, align 8, !tbaa !118
  %.not59 = icmp eq ptr %82, null
  %.not60 = icmp eq ptr %4, null
  br i1 %.not59, label %88, label %83

83:                                               ; preds = %78
  br i1 %.not60, label %87, label %84

84:                                               ; preds = %83
  %85 = getelementptr inbounds nuw i8, ptr %80, i64 4
  %86 = load i32, ptr %85, align 4, !tbaa !120
  store i32 %86, ptr %4, align 4, !tbaa !28
  br label %87

87:                                               ; preds = %84, %83
  %.not63 = icmp eq ptr %5, null
  br i1 %.not63, label %96, label %.sink.split

88:                                               ; preds = %78
  br i1 %.not60, label %92, label %89

89:                                               ; preds = %88
  %90 = getelementptr inbounds nuw i8, ptr %80, i64 8
  %91 = load i32, ptr %90, align 8, !tbaa !121
  store i32 %91, ptr %4, align 4, !tbaa !28
  br label %92

92:                                               ; preds = %89, %88
  %.not61 = icmp eq ptr %5, null
  br i1 %.not61, label %96, label %.sink.split

.sink.split:                                      ; preds = %92, %87
  %.sink65 = phi i64 [ 24, %87 ], [ 16, %92 ]
  %93 = load ptr, ptr %79, align 8, !tbaa !35
  %94 = getelementptr inbounds nuw i8, ptr %93, i64 %.sink65
  %95 = load ptr, ptr %94, align 8, !tbaa !30
  store ptr %95, ptr %5, align 8, !tbaa !30
  br label %96

96:                                               ; preds = %.sink.split, %87, %92
  %97 = load i8, ptr %0, align 8, !tbaa !3
  %98 = icmp eq i8 %97, 1
  br i1 %98, label %99, label %102

99:                                               ; preds = %96
  %100 = getelementptr inbounds nuw i8, ptr %0, i64 504
  %101 = call i32 @pthread_mutex_unlock(ptr noundef nonnull %100) #6
  br label %102

102:                                              ; preds = %99, %96, %54, %51, %6, %67, %44, %25
  %.0 = phi i32 [ %28, %25 ], [ %47, %44 ], [ %73, %67 ], [ 2, %6 ], [ %50, %51 ], [ %50, %54 ], [ 0, %96 ], [ 0, %99 ]
  call void @llvm.lifetime.end.p0(i64 8, ptr nonnull %7) #6
  ret i32 %.0
}